target datalayout = "e-m:e-p270:32:32-p271:32:32-p272:64:64-i64:64-i128:128-f80:128-n8:16:32:64-S128"
target triple = "x86_64-pc-linux-gnu"

%struct.crypto_ex_data_st = type { ptr, ptr }
%struct.ui_method_st = type { ptr, ptr, ptr, ptr, ptr, ptr, ptr, ptr, ptr, %struct.crypto_ex_data_st }

; Function Attrs: nounwind uwtable
define i32 @UI_method_set_data_duplicator(ptr noundef %0, ptr noundef %1, ptr noundef %2) #0 {
  %4 = alloca i32, align 4
  %5 = alloca ptr, align 8
  %6 = alloca ptr, align 8
  %7 = alloca ptr, align 8
  store ptr %0, ptr %5, align 8, !tbaa !3
  store ptr %1, ptr %6, align 8, !tbaa !25
  store ptr %2, ptr %7, align 8, !tbaa !25
  %8 = load ptr, ptr %5, align 8, !tbaa !3
  %9 = icmp ne ptr %8, null
  br i1 %9, label %10, label %17

10:                                               ; preds = %3
  %11 = load ptr, ptr %6, align 8, !tbaa !25
  %12 = load ptr, ptr %5, align 8, !tbaa !3
  %13 = getelementptr inbounds nuw %struct.ui_method_st, ptr %12, i32 0, i32 6
  store ptr %11, ptr %13, align 8, !tbaa !39
  %14 = load ptr, ptr %7, align 8, !tbaa !25
  %15 = load ptr, ptr %5, align 8, !tbaa !3
  %16 = getelementptr inbounds nuw %struct.ui_method_st, ptr %15, i32 0, i32 7
  store ptr %14, ptr %16, align 8, !tbaa !19
  store i32 0, ptr %4, align 4
  br label %18

17:                                               ; preds = %3
  store i32 -1, ptr %4, align 4
  br label %18

18:                                               ; preds = %17, %10
  %19 = load i32, ptr %4, align 4
  ret i32 %19
}