; Function Attrs: mustprogress nofree norecurse nosync nounwind willreturn memory(argmem: write) uwtable
define range(i32 -1, 1) i32 @UI_method_set_data_duplicator(ptr noundef writeonly captures(address_is_null) %0, ptr noundef %1, ptr noundef %2) local_unnamed_addr #6 {
  %.not = icmp eq ptr %0, null
  br i1 %.not, label %7, label %4

4:                                                ; preds = %3
  %5 = getelementptr inbounds nuw i8, ptr %0, i64 48
  store ptr %1, ptr %5, align 8, !tbaa !30
  %6 = getelementptr inbounds nuw i8, ptr %0, i64 56
  store ptr %2, ptr %6, align 8, !tbaa !16
  br label %7

7:                                                ; preds = %3, %4
  %.0 = phi i32 [ 0, %4 ], [ -1, %3 ]
  ret i32 %.0
}